target datalayout = "e-m:e-p270:32:32-p271:32:32-p272:64:64-i64:64-i128:128-f80:128-n8:16:32:64-S128"
target triple = "x86_64-pc-linux-gnu"

%struct.archive_read = type { %struct.archive, ptr, i32, i64, i64, %struct.archive_read_client, [16 x %struct.archive_read_filter_bidder], ptr, i32, i64, i32, i32, [16 x %struct.archive_format_descriptor], ptr, ptr, ptr, %struct.anon }
%struct.archive = type { i32, i32, ptr, i32, ptr, i32, i32, ptr, %struct.archive_string, ptr, i32, i32, ptr, ptr, i64, i64, i64, i8, i64 }
%struct.archive_string = type { ptr, i64, i64 }
%struct.archive_read_client = type { ptr, ptr, ptr, ptr, ptr, ptr, i32, i32, i64, ptr }
%struct.archive_read_filter_bidder = type { ptr, ptr, ptr }
%struct.archive_format_descriptor = type { ptr, ptr, ptr, ptr, ptr, ptr, ptr, ptr, ptr, ptr, ptr }
%struct.anon = type { ptr, ptr, i32, ptr, ptr }

@.str.1 = private unnamed_addr constant [31 x i8] c"archive_read_set_open_callback\00", align 1

; Function Attrs: nounwind uwtable
define dso_local i32 @archive_read_set_open_callback(ptr noundef %0, ptr noundef %1) #0 {
  %3 = alloca i32, align 4
  %4 = alloca ptr, align 8
  %5 = alloca ptr, align 8
  %6 = alloca ptr, align 8
  %7 = alloca i32, align 4
  %8 = alloca i32, align 4
  store ptr %0, ptr %4, align 8, !tbaa !31
  store ptr %1, ptr %5, align 8, !tbaa !37
  call void @llvm.lifetime.start.p0(i64 8, ptr %6) #11
  %9 = load ptr, ptr %4, align 8, !tbaa !31
  store ptr %9, ptr %6, align 8, !tbaa !4
  br label %10

10:                                               ; preds = %2
  call void @llvm.lifetime.start.p0(i64 4, ptr %7) #11
  %11 = load ptr, ptr %4, align 8, !tbaa !31
  %12 = call i32 @__archive_check_magic(ptr noundef %11, i32 noundef 14594245, i32 noundef 1, ptr noundef @.str.1)
  store i32 %12, ptr %7, align 4, !tbaa !38
  %13 = load i32, ptr %7, align 4, !tbaa !38
  %14 = icmp eq i32 %13, -30
  br i1 %14, label %15, label %16

15:                                               ; preds = %10
  store i32 -30, ptr %3, align 4
  store i32 1, ptr %8, align 4
  br label %17

16:                                               ; preds = %10
  store i32 0, ptr %8, align 4
  br label %17

17:                                               ; preds = %16, %15
  call void @llvm.lifetime.end.p0(i64 4, ptr %7) #11
  %18 = load i32, ptr %8, align 4
  switch i32 %18, label %26 [
    i32 0, label %19
  ]

19:                                               ; preds = %17
  br label %20

20:                                               ; preds = %19
  br label %21

21:                                               ; preds = %20
  %22 = load ptr, ptr %5, align 8, !tbaa !37
  %23 = load ptr, ptr %6, align 8, !tbaa !4
  %24 = getelementptr inbounds nuw %struct.archive_read, ptr %23, i32 0, i32 5
  %25 = getelementptr inbounds nuw %struct.archive_read_client, ptr %24, i32 0, i32 0
  store ptr %22, ptr %25, align 8, !tbaa !39
  store i32 0, ptr %3, align 4
  store i32 1, ptr %8, align 4
  br label %26

26:                                               ; preds = %21, %17
  call void @llvm.lifetime.end.p0(i64 8, ptr %6) #11
  %27 = load i32, ptr %3, align 4
  ret i32 %27
}